; Function Attrs: mustprogress uwtable
define noundef i64 @_ZNK6google8protobuf2io24ConcatenatingInputStream9ByteCountEv(ptr nocapture noundef nonnull readonly align 8 dereferenceable(32) %0) unnamed_addr #3 align 2 {
  %2 = getelementptr inbounds i8, ptr %0, i64 16
  %3 = load i32, ptr %2, align 8
  %4 = icmp eq i32 %3, 0
  %5 = getelementptr inbounds i8, ptr %0, i64 24
  %6 = load i64, ptr %5, align 8
  br i1 %4, label %16, label %7

7:                                                ; preds = %1
  %8 = getelementptr inbounds i8, ptr %0, i64 8
  %9 = load ptr, ptr %8, align 8
  %10 = load ptr, ptr %9, align 8
  %11 = load ptr, ptr %10, align 8
  %12 = getelementptr inbounds i8, ptr %11, i64 40
  %13 = load ptr, ptr %12, align 8
  %14 = tail call noundef i64 %13(ptr noundef nonnull align 8 dereferenceable(8) %10)
  %15 = add nsw i64 %14, %6
  br label %16

16:                                               ; preds = %1, %7
  %.0 = phi i64 [ %15, %7 ], [ %6, %1 ]
  ret i64 %.0
}